target datalayout = "e-m:e-p270:32:32-p271:32:32-p272:64:64-i64:64-i128:128-f80:128-n8:16:32:64-S128"
target triple = "x86_64-pc-linux-gnu"

@_ZZN3tbb6detail2r18governor19default_num_threadsEvE11num_threads = linkonce_odr global i32 0, comdat, align 4
@_ZGVZN3tbb6detail2r18governor19default_num_threadsEvE11num_threads = linkonce_odr global i64 0, comdat, align 8

; Function Attrs: mustprogress sspstrong uwtable
define linkonce_odr noundef i32 @_ZN3tbb6detail2r18governor19default_num_threadsEv() #0 comdat align 2 personality ptr @__gxx_personality_v0 {
  %1 = alloca ptr, align 8
  %2 = alloca i32, align 4
  %3 = load atomic i8, ptr @_ZGVZN3tbb6detail2r18governor19default_num_threadsEvE11num_threads acquire, align 8
  %4 = icmp eq i8 %3, 0
  br i1 %4, label %5, label %11, !prof !7

5:                                                ; preds = %0
  %6 = call i32 @__cxa_guard_acquire(ptr @_ZGVZN3tbb6detail2r18governor19default_num_threadsEvE11num_threads) #7
  %7 = icmp ne i32 %6, 0
  br i1 %7, label %8, label %11

8:                                                ; preds = %5
  %9 = invoke noundef i32 @_ZN3tbb6detail2r122AvailableHwConcurrencyEv()
          to label %10 unwind label %13

10:                                               ; preds = %8
  store i32 %9, ptr @_ZZN3tbb6detail2r18governor19default_num_threadsEvE11num_threads, align 4, !tbaa !3
  call void @__cxa_guard_release(ptr @_ZGVZN3tbb6detail2r18governor19default_num_threadsEvE11num_threads) #7
  br label %11

11:                                               ; preds = %10, %5, %0
  %12 = load i32, ptr @_ZZN3tbb6detail2r18governor19default_num_threadsEvE11num_threads, align 4, !tbaa !3
  ret i32 %12

13:                                               ; preds = %8
  %14 = landingpad { ptr, i32 }
          cleanup
  %15 = extractvalue { ptr, i32 } %14, 0
  store ptr %15, ptr %1, align 8
  %16 = extractvalue { ptr, i32 } %14, 1
  store i32 %16, ptr %2, align 4
  call void @__cxa_guard_abort(ptr @_ZGVZN3tbb6detail2r18governor19default_num_threadsEvE11num_threads) #7
  br label %17

17:                                               ; preds = %13
  %18 = load ptr, ptr %1, align 8
  %19 = load i32, ptr %2, align 4
  %20 = insertvalue { ptr, i32 } poison, ptr %18, 0
  %21 = insertvalue { ptr, i32 } %20, i32 %19, 1
  resume { ptr, i32 } %21
}

; Function Attrs: mustprogress sspstrong uwtable
define noundef i32 @_ZN3tbb6detail2r122threading_control_impl23calc_workers_soft_limitEj(i32 noundef %0) #0 align 2 {
  %2 = alloca i32, align 4
  %3 = alloca i32, align 4
  %4 = alloca i32, align 4
  store i32 %0, ptr %2, align 4, !tbaa !3
  call void @llvm.lifetime.start.p0(i64 4, ptr %3) #7
  store i32 0, ptr %3, align 4, !tbaa !3
  call void @llvm.lifetime.start.p0(i64 4, ptr %4) #7
  %5 = call noundef i64 @_ZN3tbb6detail2r134global_control_active_value_unsafeENS0_2d114global_control9parameterE(i32 noundef 0)
  %6 = trunc i64 %5 to i32
  store i32 %6, ptr %4, align 4, !tbaa !3
  %7 = load i32, ptr %4, align 4, !tbaa !3
  %8 = icmp ne i32 %7, 0
  br i1 %8, label %9, label %12

9:                                                ; preds = %1
  %10 = load i32, ptr %4, align 4, !tbaa !3
  %11 = sub i32 %10, 1
  br label %15

12:                                               ; preds = %1
  %13 = call noundef i32 @_ZN3tbb6detail2r18governor19default_num_threadsEv()
  %14 = sub i32 %13, 1
  br label %15

15:                                               ; preds = %12, %9
  %16 = phi i32 [ %11, %9 ], [ %14, %12 ]
  store i32 %16, ptr %3, align 4, !tbaa !3
  %17 = load i32, ptr %3, align 4, !tbaa !3
  %18 = load i32, ptr %2, align 4, !tbaa !3
  %19 = icmp uge i32 %17, %18
  br i1 %19, label %20, label %23

20:                                               ; preds = %15
  %21 = load i32, ptr %2, align 4, !tbaa !3
  %22 = sub i32 %21, 1
  store i32 %22, ptr %3, align 4, !tbaa !3
  br label %23

23:                                               ; preds = %20, %15
  %24 = load i32, ptr %3, align 4, !tbaa !3
  call void @llvm.lifetime.end.p0(i64 4, ptr %4) #7
  call void @llvm.lifetime.end.p0(i64 4, ptr %3) #7
  ret i32 %24
}