; Function Attrs: mustprogress sspstrong uwtable
define noundef i32 @_ZN3tbb6detail2r122threading_control_impl23calc_workers_soft_limitEj(i32 noundef %0) local_unnamed_addr #0 align 2 personality ptr @__gxx_personality_v0 {
  %2 = tail call noundef i64 @_ZN3tbb6detail2r134global_control_active_value_unsafeENS0_2d114global_control9parameterE(i32 noundef 0)
  %3 = trunc i64 %2 to i32
  %.not = icmp eq i32 %3, 0
  br i1 %.not, label %4, label %15

4:                                                ; preds = %1
  %5 = load atomic i8, ptr @_ZGVZN3tbb6detail2r18governor19default_num_threadsEvE11num_threads acquire, align 8
  %6 = icmp eq i8 %5, 0
  br i1 %6, label %7, label %_ZN3tbb6detail2r18governor19default_num_threadsEv.exit, !prof !3

7:                                                ; preds = %4
  %8 = tail call i32 @__cxa_guard_acquire(ptr nonnull @_ZGVZN3tbb6detail2r18governor19default_num_threadsEvE11num_threads) #16
  %.not.i = icmp eq i32 %8, 0
  br i1 %.not.i, label %_ZN3tbb6detail2r18governor19default_num_threadsEv.exit, label %9

9:                                                ; preds = %7
  %10 = invoke noundef i32 @_ZN3tbb6detail2r122AvailableHwConcurrencyEv()
          to label %11 unwind label %12

11:                                               ; preds = %9
  store i32 %10, ptr @_ZZN3tbb6detail2r18governor19default_num_threadsEvE11num_threads, align 4, !tbaa !4
  tail call void @__cxa_guard_release(ptr nonnull @_ZGVZN3tbb6detail2r18governor19default_num_threadsEvE11num_threads) #16
  br label %_ZN3tbb6detail2r18governor19default_num_threadsEv.exit

12:                                               ; preds = %9
  %13 = landingpad { ptr, i32 }
          cleanup
  tail call void @__cxa_guard_abort(ptr nonnull @_ZGVZN3tbb6detail2r18governor19default_num_threadsEvE11num_threads) #16
  resume { ptr, i32 } %13

_ZN3tbb6detail2r18governor19default_num_threadsEv.exit: ; preds = %4, %7, %11
  %14 = load i32, ptr @_ZZN3tbb6detail2r18governor19default_num_threadsEvE11num_threads, align 4, !tbaa !4
  br label %15

15:                                               ; preds = %1, %_ZN3tbb6detail2r18governor19default_num_threadsEv.exit
  %.in = phi i32 [ %14, %_ZN3tbb6detail2r18governor19default_num_threadsEv.exit ], [ %3, %1 ]
  %16 = add i32 %.in, -1
  %.not9 = icmp ult i32 %16, %0
  %17 = add i32 %0, -1
  %spec.select = select i1 %.not9, i32 %16, i32 %17
  ret i32 %spec.select
}